Certificate:
    Data:
        Version: 3 (0x2)
        Serial Number:
            81:f5:f5:00:f5:b0:8b:b9
        Signature Algorithm: sha1WithRSAEncryption
        Issuer: C=US, ST=Virginia, O=Old Dominion University, OU=CS472, CN=William Ross/emailAddress=wross@cs.odu.edu
        Validity
            Not Before: Nov 14 09:56:02 2010 GMT
            Not After : Nov 14 09:56:02 2011 GMT
        Subject: C=US, ST=Virginia, L=Norfolk, O=Old Dominion University, OU=CS472, CN=Application Gateway/emailAddress=wross@cs.odu.edu
        Subject Public Key Info:
            Public Key Algorithm: rsaEncryption
                Public-Key: (1024 bit)
                Modulus:
                    00:f7:e2:de:aa:36:e7:c6:76:2a:b4:57:a9:a0:ac:
                    53:f2:f9:53:10:26:2f:37:c6:4f:ec:44:d4:dd:24:
                    37:5c:a0:ed:0e:05:75:8c:8c:12:6a:a0:b9:00:5a:
                    4f:a6:0e:5c:43:97:d1:a9:d5:96:74:cb:b0:86:5d:
                    b4:49:63:b5:5e:59:e6:f2:42:43:a7:22:d2:0e:57:
                    9c:d8:19:cf:c0:3d:27:70:6a:73:aa:30:24:88:79:
                    c1:30:7e:76:ea:b1:30:e8:91:2c:70:97:b0:36:c4:
                    33:9f:8a:b6:b1:ef:7b:e9:d2:51:cb:d4:66:be:d3:
                    8f:5f:9e:e6:44:b6:6c:73:33
                Exponent: 65537 (0x10001)
        X509v3 extensions:
            X509v3 Basic Constraints: 
                CA:FALSE
            Netscape Comment: 
                OpenSSL Generated Certificate
            X509v3 Subject Key Identifier: 
                CC:0C:FF:47:83:55:77:50:4A:57:EF:19:68:25:D7:BF:34:31:42:CF
            X509v3 Authority Key Identifier: 
                keyid:69:6B:87:1A:1E:91:D7:BA:16:F9:C0:2D:A9:ED:C0:91:3A:02:90:3D

    Signature Algorithm: sha1WithRSAEncryption
        6b:92:58:91:cf:f6:70:ae:10:fc:4f:4d:53:94:d6:fa:3e:97:
        4e:dd:cf:0c:fb:db:d8:ad:cc:49:25:55:3e:3d:cb:7f:c1:6e:
        76:d0:c5:75:f9:bb:88:b7:3b:b4:a5:34:64:0c:e8:3b:3b:aa:
        20:25:ba:42:80:8c:99:89:4c:7d:6f:bb:59:14:8c:90:08:f4:
        f0:bb:65:45:40:0e:ec:b9:51:42:03:9d:c3:5e:0e:95:b8:65:
        d7:eb:1b:c6:88:60:e9:bd:fd:19:1c:31:3d:ea:6e:6b:1f:15:
        bf:dc:f2:6d:7c:53:0c:95:45:74:5c:1e:b1:fb:b2:e2:a8:fb:
        28:9a
-----BEGIN CERTIFICATE-----
MIIDKDCCApGgAwIBAgIJAIH19QD1sIu5MA0GCSqGSIb3DQEBBQUAMIGKMQswCQYD
VQQGEwJVUzERMA8GA1UECAwIVmlyZ2luaWExIDAeBgNVBAoMF09sZCBEb21pbmlv
biBVbml2ZXJzaXR5MQ4wDAYDVQQLDAVDUzQ3MjEVMBMGA1UEAwwMV2lsbGlhbSBS
b3NzMR8wHQYJKoZIhvcNAQkBFhB3cm9zc0Bjcy5vZHUuZWR1MB4XDTEwMTExNDA5
NTYwMloXDTExMTExNDA5NTYwMlowgaMxCzAJBgNVBAYTAlVTMREwDwYDVQQIDAhW
aXJnaW5pYTEQMA4GA1UEBwwHTm9yZm9sazEgMB4GA1UECgwXT2xkIERvbWluaW9u
IFVuaXZlcnNpdHkxDjAMBgNVBAsMBUNTNDcyMRwwGgYDVQQDDBNBcHBsaWNhdGlv
biBHYXRld2F5MR8wHQYJKoZIhvcNAQkBFhB3cm9zc0Bjcy5vZHUuZWR1MIGfMA0G
CSqGSIb3DQEBAQUAA4GNADCBiQKBgQD34t6qNufGdiq0V6mgrFPy+VMQJi83xk/s
RNTdJDdcoO0OBXWMjBJqoLkAWk+mDlxDl9Gp1ZZ0y7CGXbRJY7VeWebyQkOnItIO
V5zYGc/APSdwanOqMCSIecEwfnbqsTDokSxwl7A2xDOfirax73vp0lHL1Ga+049f
nuZEtmxzMwIDAQABo3sweTAJBgNVHRMEAjAAMCwGCWCGSAGG+EIBDQQfFh1PcGVu
U1NMIEdlbmVyYXRlZCBDZXJ0aWZpY2F0ZTAdBgNVHQ4EFgQUzAz/R4NVd1BKV+8Z
aCXXvzQxQs8wHwYDVR0jBBgwFoAUaWuHGh6R17oW+cAtqe3AkToCkD0wDQYJKoZI
hvcNAQEFBQADgYEAa5JYkc/2cK4Q/E9NU5TW+j6XTt3PDPvb2K3MSSVVPj3Lf8Fu
dtDFdfm7iLc7tKU0ZAzoOzuqICW6QoCMmYlMfW+7WRSMkAj08LtlRUAO7LlRQgOd
w14Olbhl1+sbxohg6b39GRwxPepuax8Vv9zybXxTDJVFdFwesfuy4qj7KJo=
-----END CERTIFICATE-----
