Certificate:
    Data:
        Version: 3 (0x2)
        Serial Number:
            81:f5:f5:00:f5:b0:8b:b8
        Signature Algorithm: sha1WithRSAEncryption
        Issuer: C=US, ST=Virginia, O=Old Dominion University, OU=CS472, CN=William Ross/emailAddress=wross@cs.odu.edu
        Validity
            Not Before: Nov 14 09:50:30 2010 GMT
            Not After : Nov 14 09:50:30 2011 GMT
        Subject: C=US, ST=Virginia, L=Norfolk, O=Old Dominion University, OU=CS472, CN=Secure Store/emailAddress=wross@cs.odu.edu
        Subject Public Key Info:
            Public Key Algorithm: rsaEncryption
                Public-Key: (1024 bit)
                Modulus:
                    00:b4:26:5c:d2:39:f7:06:44:8f:89:91:2b:d6:16:
                    ab:ea:71:a8:c4:91:1f:96:3a:31:87:a7:a7:fb:70:
                    95:16:28:e4:da:d1:6e:8a:7f:46:6c:f9:3a:a3:f2:
                    d0:37:0b:fb:6b:98:86:30:f9:a5:84:5b:7c:a1:ea:
                    1d:10:9a:45:49:b2:69:b0:ac:51:bf:1e:0d:2f:5d:
                    90:75:1e:e8:9b:30:af:41:04:04:3e:e6:c7:8d:b4:
                    b9:fc:7e:c0:43:9e:b8:bb:ed:5a:79:d5:f4:1f:ba:
                    90:95:05:eb:aa:3c:f8:b9:a6:df:d5:86:ab:35:24:
                    6e:29:3a:8f:08:74:0e:6e:15
                Exponent: 65537 (0x10001)
        X509v3 extensions:
            X509v3 Basic Constraints: 
                CA:FALSE
            Netscape Comment: 
                OpenSSL Generated Certificate
            X509v3 Subject Key Identifier: 
                3A:EB:2A:4B:8E:C9:94:57:A5:69:1A:E0:0E:A1:04:C2:30:39:36:49
            X509v3 Authority Key Identifier: 
                keyid:69:6B:87:1A:1E:91:D7:BA:16:F9:C0:2D:A9:ED:C0:91:3A:02:90:3D

    Signature Algorithm: sha1WithRSAEncryption
        24:10:82:be:09:b1:86:05:08:22:82:ca:af:4e:a5:c0:e0:1d:
        ec:48:b7:53:c4:f3:cb:14:bc:14:e2:c2:52:78:6a:c9:c2:ea:
        57:e4:58:44:0e:95:b4:5e:42:8a:be:39:fc:67:85:90:23:3c:
        12:33:5d:71:3b:84:71:b8:8a:14:9e:69:58:f4:7c:6c:61:68:
        7d:a8:ab:4d:db:8b:0d:4f:d4:94:1b:e9:f9:7f:5f:fb:2c:34:
        ff:3f:58:80:e2:97:19:90:ce:a7:96:69:f5:ba:d1:58:3d:f9:
        c4:ee:dd:6c:c3:d4:57:f7:cf:e7:74:90:76:73:b0:46:bc:30:
        fe:7e
-----BEGIN CERTIFICATE-----
MIIDITCCAoqgAwIBAgIJAIH19QD1sIu4MA0GCSqGSIb3DQEBBQUAMIGKMQswCQYD
VQQGEwJVUzERMA8GA1UECAwIVmlyZ2luaWExIDAeBgNVBAoMF09sZCBEb21pbmlv
biBVbml2ZXJzaXR5MQ4wDAYDVQQLDAVDUzQ3MjEVMBMGA1UEAwwMV2lsbGlhbSBS
b3NzMR8wHQYJKoZIhvcNAQkBFhB3cm9zc0Bjcy5vZHUuZWR1MB4XDTEwMTExNDA5
NTAzMFoXDTExMTExNDA5NTAzMFowgZwxCzAJBgNVBAYTAlVTMREwDwYDVQQIDAhW
aXJnaW5pYTEQMA4GA1UEBwwHTm9yZm9sazEgMB4GA1UECgwXT2xkIERvbWluaW9u
IFVuaXZlcnNpdHkxDjAMBgNVBAsMBUNTNDcyMRUwEwYDVQQDDAxTZWN1cmUgU3Rv
cmUxHzAdBgkqhkiG9w0BCQEWEHdyb3NzQGNzLm9kdS5lZHUwgZ8wDQYJKoZIhvcN
AQEBBQADgY0AMIGJAoGBALQmXNI59wZEj4mRK9YWq+pxqMSRH5Y6MYenp/twlRYo
5NrRbop/Rmz5OqPy0DcL+2uYhjD5pYRbfKHqHRCaRUmyabCsUb8eDS9dkHUe6Jsw
r0EEBD7mx420ufx+wEOeuLvtWnnV9B+6kJUF66o8+Lmm39WGqzUkbik6jwh0Dm4V
AgMBAAGjezB5MAkGA1UdEwQCMAAwLAYJYIZIAYb4QgENBB8WHU9wZW5TU0wgR2Vu
ZXJhdGVkIENlcnRpZmljYXRlMB0GA1UdDgQWBBQ66ypLjsmUV6VpGuAOoQTCMDk2
STAfBgNVHSMEGDAWgBRpa4caHpHXuhb5wC2p7cCROgKQPTANBgkqhkiG9w0BAQUF
AAOBgQAkEIK+CbGGBQgigsqvTqXA4B3sSLdTxPPLFLwU4sJSeGrJwupX5FhEDpW0
XkKKvjn8Z4WQIzwSM11xO4RxuIoUnmlY9HxsYWh9qKtN24sNT9SUG+n5f1/7LDT/
P1iA4pcZkM6nlmn1utFYPfnE7t1sw9RX98/ndJB2c7BGvDD+fg==
-----END CERTIFICATE-----
