Certificate:
    Data:
        Version: 3 (0x2)
        Serial Number:
            81:f5:f5:00:f5:b0:8b:b7
        Signature Algorithm: sha1WithRSAEncryption
        Issuer: C=US, ST=Virginia, O=Old Dominion University, OU=CS472, CN=William Ross/emailAddress=wross@cs.odu.edu
        Validity
            Not Before: Nov 14 09:48:45 2010 GMT
            Not After : Nov 13 09:48:46 2013 GMT
        Subject: C=US, ST=Virginia, O=Old Dominion University, OU=CS472, CN=William Ross/emailAddress=wross@cs.odu.edu
        Subject Public Key Info:
            Public Key Algorithm: rsaEncryption
                Public-Key: (1024 bit)
                Modulus:
                    00:d0:f3:30:4e:2d:f3:52:78:4d:cd:d8:1b:14:6a:
                    62:89:8d:2a:07:78:39:28:75:25:22:03:f9:e4:c5:
                    52:f8:ba:2c:1c:b0:cb:40:4e:ac:8e:0d:9f:3f:bc:
                    0a:5c:81:5b:64:e7:60:4f:a1:37:d3:58:a8:c1:4f:
                    2f:ef:41:f8:9e:55:00:85:4f:f0:12:a5:cf:77:97:
                    ba:67:fd:06:bd:26:e8:b7:76:26:cc:4e:a8:14:2e:
                    09:96:96:7e:bd:9a:fa:3f:d9:e0:5b:a5:0f:a2:c2:
                    77:a9:b2:9c:1a:a4:7a:d5:62:c3:50:b2:10:db:c5:
                    3b:37:ba:a1:79:4c:67:49:db
                Exponent: 65537 (0x10001)
        X509v3 extensions:
            X509v3 Subject Key Identifier: 
                69:6B:87:1A:1E:91:D7:BA:16:F9:C0:2D:A9:ED:C0:91:3A:02:90:3D
            X509v3 Authority Key Identifier: 
                keyid:69:6B:87:1A:1E:91:D7:BA:16:F9:C0:2D:A9:ED:C0:91:3A:02:90:3D

            X509v3 Basic Constraints: 
                CA:TRUE
    Signature Algorithm: sha1WithRSAEncryption
        a6:a8:ba:9a:e5:7d:7c:fe:43:4d:d0:c1:29:40:7e:c3:29:b7:
        05:ee:86:8c:e7:09:30:04:a6:58:48:be:45:5f:fa:8c:97:bc:
        d1:10:39:0f:cc:cf:00:26:3a:fe:c0:06:de:be:8d:21:31:de:
        b8:5b:18:3e:49:bb:b2:00:63:d9:f0:72:0b:c9:4d:58:4e:91:
        b5:5c:80:e9:db:ae:8d:dd:bb:57:c0:00:15:64:3d:cb:17:40:
        00:61:c1:e1:b1:6f:59:a4:24:cb:75:11:d0:f2:48:39:a5:99:
        79:2e:5b:4f:2e:e2:e1:84:bf:f4:8c:12:07:90:f8:c0:7e:38:
        83:a1
-----BEGIN CERTIFICATE-----
MIIC5DCCAk2gAwIBAgIJAIH19QD1sIu3MA0GCSqGSIb3DQEBBQUAMIGKMQswCQYD
VQQGEwJVUzERMA8GA1UECAwIVmlyZ2luaWExIDAeBgNVBAoMF09sZCBEb21pbmlv
biBVbml2ZXJzaXR5MQ4wDAYDVQQLDAVDUzQ3MjEVMBMGA1UEAwwMV2lsbGlhbSBS
b3NzMR8wHQYJKoZIhvcNAQkBFhB3cm9zc0Bjcy5vZHUuZWR1MB4XDTEwMTExNDA5
NDg0NVoXDTEzMTExMzA5NDg0NlowgYoxCzAJBgNVBAYTAlVTMREwDwYDVQQIDAhW
aXJnaW5pYTEgMB4GA1UECgwXT2xkIERvbWluaW9uIFVuaXZlcnNpdHkxDjAMBgNV
BAsMBUNTNDcyMRUwEwYDVQQDDAxXaWxsaWFtIFJvc3MxHzAdBgkqhkiG9w0BCQEW
EHdyb3NzQGNzLm9kdS5lZHUwgZ8wDQYJKoZIhvcNAQEBBQADgY0AMIGJAoGBANDz
ME4t81J4Tc3YGxRqYomNKgd4OSh1JSID+eTFUvi6LBywy0BOrI4Nnz+8ClyBW2Tn
YE+hN9NYqMFPL+9B+J5VAIVP8BKlz3eXumf9Br0m6Ld2JsxOqBQuCZaWfr2a+j/Z
4FulD6LCd6mynBqketViw1CyENvFOze6oXlMZ0nbAgMBAAGjUDBOMB0GA1UdDgQW
BBRpa4caHpHXuhb5wC2p7cCROgKQPTAfBgNVHSMEGDAWgBRpa4caHpHXuhb5wC2p
7cCROgKQPTAMBgNVHRMEBTADAQH/MA0GCSqGSIb3DQEBBQUAA4GBAKaouprlfXz+
Q03QwSlAfsMptwXuhoznCTAEplhIvkVf+oyXvNEQOQ/MzwAmOv7ABt6+jSEx3rhb
GD5Ju7IAY9nwcgvJTVhOkbVcgOnbro3du1fAABVkPcsXQABhweGxb1mkJMt1EdDy
SDmlmXkuW08u4uGEv/SMEgeQ+MB+OIOh
-----END CERTIFICATE-----
