Certificate:
    Data:
        Version: 3 (0x2)
        Serial Number:
            e6:13:f8:d7:fe:f7:e5:8e
        Signature Algorithm: sha1WithRSAEncryption
        Issuer: C=US, ST=Virginia, O=Old DOminion University, OU=CS 472, CN=William Ross/emailAddress=wross@cs.odu.edu
        Validity
            Not Before: Nov 27 21:28:14 2010 GMT
            Not After : Nov 26 21:28:14 2013 GMT
        Subject: C=US, ST=Virginia, O=Old DOminion University, OU=CS 472, CN=William Ross/emailAddress=wross@cs.odu.edu
        Subject Public Key Info:
            Public Key Algorithm: rsaEncryption
                Public-Key: (1024 bit)
                Modulus:
                    00:b8:d0:47:aa:01:b6:42:28:19:9e:d3:85:b6:c0:
                    0f:d6:e9:fd:c4:30:97:54:bd:08:dd:e4:1f:c6:20:
                    26:b5:4c:37:f5:01:5f:30:ec:9b:53:55:16:ca:2a:
                    67:c3:f1:ab:e0:c8:40:25:1b:32:ff:cd:ad:a1:f4:
                    83:89:8e:b4:28:7f:ff:b4:33:c0:10:af:4d:07:45:
                    c7:99:ea:3f:4f:77:2d:64:8a:e2:d3:a3:66:52:b2:
                    1b:8f:52:4e:6f:e0:72:45:54:8c:1a:c4:37:4e:bd:
                    24:ae:ce:1a:fe:a0:22:53:1e:bc:63:c4:b4:0d:2f:
                    dd:7e:62:3d:5f:4a:05:14:ed
                Exponent: 65537 (0x10001)
        X509v3 extensions:
            X509v3 Subject Key Identifier: 
                AB:4A:A2:C1:0F:9F:67:ED:49:5A:46:99:50:BF:0E:FE:5B:3F:F5:87
            X509v3 Authority Key Identifier: 
                keyid:AB:4A:A2:C1:0F:9F:67:ED:49:5A:46:99:50:BF:0E:FE:5B:3F:F5:87

            X509v3 Basic Constraints: 
                CA:TRUE
    Signature Algorithm: sha1WithRSAEncryption
        13:7c:7e:77:68:f2:23:c1:f1:67:27:50:cf:4a:d1:36:14:bb:
        39:53:63:4b:e2:a0:52:d8:e5:43:55:d5:02:72:95:d1:97:8f:
        ee:ec:9f:ab:12:72:c4:a7:e8:77:6f:10:21:4e:db:2b:25:ee:
        3e:f0:e2:db:1d:76:32:0c:84:d4:7c:38:91:ee:0b:56:eb:a4:
        6a:86:d1:a0:49:40:c8:8d:ed:72:b3:0f:fa:45:e3:63:fb:41:
        f0:51:ed:8e:53:c8:b0:e0:aa:d5:35:a2:62:fd:ff:b8:f8:de:
        b2:e5:a2:c1:61:7a:28:b1:94:4c:eb:cc:0c:e4:0c:16:a7:1e:
        1a:da
-----BEGIN CERTIFICATE-----
MIIC5jCCAk+gAwIBAgIJAOYT+Nf+9+WOMA0GCSqGSIb3DQEBBQUAMIGLMQswCQYD
VQQGEwJVUzERMA8GA1UECAwIVmlyZ2luaWExIDAeBgNVBAoMF09sZCBET21pbmlv
biBVbml2ZXJzaXR5MQ8wDQYDVQQLDAZDUyA0NzIxFTATBgNVBAMMDFdpbGxpYW0g
Um9zczEfMB0GCSqGSIb3DQEJARYQd3Jvc3NAY3Mub2R1LmVkdTAeFw0xMDExMjcy
MTI4MTRaFw0xMzExMjYyMTI4MTRaMIGLMQswCQYDVQQGEwJVUzERMA8GA1UECAwI
VmlyZ2luaWExIDAeBgNVBAoMF09sZCBET21pbmlvbiBVbml2ZXJzaXR5MQ8wDQYD
VQQLDAZDUyA0NzIxFTATBgNVBAMMDFdpbGxpYW0gUm9zczEfMB0GCSqGSIb3DQEJ
ARYQd3Jvc3NAY3Mub2R1LmVkdTCBnzANBgkqhkiG9w0BAQEFAAOBjQAwgYkCgYEA
uNBHqgG2QigZntOFtsAP1un9xDCXVL0I3eQfxiAmtUw39QFfMOybU1UWyipnw/Gr
4MhAJRsy/82tofSDiY60KH//tDPAEK9NB0XHmeo/T3ctZIri06NmUrIbj1JOb+By
RVSMGsQ3Tr0krs4a/qAiUx68Y8S0DS/dfmI9X0oFFO0CAwEAAaNQME4wHQYDVR0O
BBYEFKtKosEPn2ftSVpGmVC/Dv5bP/WHMB8GA1UdIwQYMBaAFKtKosEPn2ftSVpG
mVC/Dv5bP/WHMAwGA1UdEwQFMAMBAf8wDQYJKoZIhvcNAQEFBQADgYEAE3x+d2jy
I8HxZydQz0rRNhS7OVNjS+KgUtjlQ1XVAnKV0ZeP7uyfqxJyxKfod28QIU7bKyXu
PvDi2x12MgyE1Hw4ke4LVuukaobRoElAyI3tcrMP+kXjY/tB8FHtjlPIsOCq1TWi
Yv3/uPjesuWiwWF6KLGUTOvMDOQMFqceGto=
-----END CERTIFICATE-----
