Certificate:
    Data:
        Version: 3 (0x2)
        Serial Number:
            e6:13:f8:d7:fe:f7:e5:91
        Signature Algorithm: sha1WithRSAEncryption
        Issuer: C=US, ST=Virginia, O=Old DOminion University, OU=CS 472, CN=William Ross/emailAddress=wross@cs.odu.edu
        Validity
            Not Before: Nov 30 13:05:50 2010 GMT
            Not After : Nov 30 13:05:50 2011 GMT
        Subject: C=US, ST=Virginia, L=Norfolk, O=Old Dominion University, OU=CS 472 - Secure Store, CN=William Ross/emailAddress=wross@cs.odu.edu
        Subject Public Key Info:
            Public Key Algorithm: rsaEncryption
                Public-Key: (1024 bit)
                Modulus:
                    00:ab:d9:3e:72:b7:23:f7:9b:dd:74:dd:07:82:a3:
                    f6:26:83:83:77:26:c1:4a:ac:0c:52:a9:b6:32:5b:
                    b5:6c:f8:b5:0b:91:96:7f:ad:f3:8c:1f:bc:6b:fa:
                    80:21:fe:51:f8:87:8f:80:c5:a5:70:8d:a9:66:18:
                    1d:09:70:72:f8:57:b5:c6:44:a0:e9:94:f0:f5:a6:
                    50:8c:66:e4:b1:ce:21:51:59:3a:b5:ae:3f:6d:2d:
                    d9:44:f9:72:ff:06:cc:26:68:c1:14:bf:5b:c4:b1:
                    20:a0:f9:c8:86:35:c1:9c:ba:09:4d:ad:c2:ec:52:
                    91:d0:b5:8a:16:9e:fc:ca:8d
                Exponent: 65537 (0x10001)
        X509v3 extensions:
            X509v3 Basic Constraints: 
                CA:FALSE
            Netscape Comment: 
                OpenSSL Generated Certificate
            X509v3 Subject Key Identifier: 
                A5:6B:16:27:6C:CE:C9:4A:AD:DD:C4:B8:1E:C3:5B:86:EC:EF:18:8E
            X509v3 Authority Key Identifier: 
                keyid:AB:4A:A2:C1:0F:9F:67:ED:49:5A:46:99:50:BF:0E:FE:5B:3F:F5:87

    Signature Algorithm: sha1WithRSAEncryption
        52:d6:7c:7c:81:4f:51:7c:7f:29:e0:f4:35:93:16:4d:e8:df:
        74:e2:ea:c7:8b:e2:03:68:6c:d4:70:c3:b0:8c:99:a4:9d:9d:
        7a:d4:7a:69:41:14:a3:75:f7:58:79:11:e2:7c:0e:38:0f:59:
        3b:49:48:18:0d:f7:d0:ce:b2:37:3c:21:31:c4:62:be:46:76:
        fe:ad:2f:37:44:06:46:31:23:4b:d1:cd:8a:59:dc:37:e5:6a:
        04:80:d2:83:c6:4d:1e:82:a6:d4:56:76:b6:10:cd:b6:6e:12:
        6b:0c:27:ef:db:58:59:49:89:6a:31:21:68:9c:11:48:01:eb:
        ad:a6
-----BEGIN CERTIFICATE-----
MIIDMjCCApugAwIBAgIJAOYT+Nf+9+WRMA0GCSqGSIb3DQEBBQUAMIGLMQswCQYD
VQQGEwJVUzERMA8GA1UECAwIVmlyZ2luaWExIDAeBgNVBAoMF09sZCBET21pbmlv
biBVbml2ZXJzaXR5MQ8wDQYDVQQLDAZDUyA0NzIxFTATBgNVBAMMDFdpbGxpYW0g
Um9zczEfMB0GCSqGSIb3DQEJARYQd3Jvc3NAY3Mub2R1LmVkdTAeFw0xMDExMzAx
MzA1NTBaFw0xMTExMzAxMzA1NTBaMIGsMQswCQYDVQQGEwJVUzERMA8GA1UECAwI
VmlyZ2luaWExEDAOBgNVBAcMB05vcmZvbGsxIDAeBgNVBAoMF09sZCBEb21pbmlv
biBVbml2ZXJzaXR5MR4wHAYDVQQLDBVDUyA0NzIgLSBTZWN1cmUgU3RvcmUxFTAT
BgNVBAMMDFdpbGxpYW0gUm9zczEfMB0GCSqGSIb3DQEJARYQd3Jvc3NAY3Mub2R1
LmVkdTCBnzANBgkqhkiG9w0BAQEFAAOBjQAwgYkCgYEAq9k+crcj95vddN0HgqP2
JoODdybBSqwMUqm2Mlu1bPi1C5GWf63zjB+8a/qAIf5R+IePgMWlcI2pZhgdCXBy
+Fe1xkSg6ZTw9aZQjGbksc4hUVk6ta4/bS3ZRPly/wbMJmjBFL9bxLEgoPnIhjXB
nLoJTa3C7FKR0LWKFp78yo0CAwEAAaN7MHkwCQYDVR0TBAIwADAsBglghkgBhvhC
AQ0EHxYdT3BlblNTTCBHZW5lcmF0ZWQgQ2VydGlmaWNhdGUwHQYDVR0OBBYEFKVr
FidszslKrd3EuB7DW4bs7xiOMB8GA1UdIwQYMBaAFKtKosEPn2ftSVpGmVC/Dv5b
P/WHMA0GCSqGSIb3DQEBBQUAA4GBAFLWfHyBT1F8fyng9DWTFk3o33Ti6seL4gNo
bNRww7CMmaSdnXrUemlBFKN191h5EeJ8DjgPWTtJSBgN99DOsjc8ITHEYr5Gdv6t
LzdEBkYxI0vRzYpZ3DflagSA0oPGTR6CptRWdrYQzbZuEmsMJ+/bWFlJiWoxIWic
EUgB662m
-----END CERTIFICATE-----
