Certificate:
    Data:
        Version: 3 (0x2)
        Serial Number:
            e6:13:f8:d7:fe:f7:e5:92
        Signature Algorithm: sha1WithRSAEncryption
        Issuer: C=US, ST=Virginia, O=Old DOminion University, OU=CS 472, CN=William Ross/emailAddress=wross@cs.odu.edu
        Validity
            Not Before: Nov 30 13:08:09 2010 GMT
            Not After : Nov 30 13:08:09 2011 GMT
        Subject: C=US, ST=Virginia, L=Norfolk, O=Old Dominion University, OU=CS 472 - Application Gateway, CN=William Ross/emailAddress=wross@cs.odu.edu
        Subject Public Key Info:
            Public Key Algorithm: rsaEncryption
                Public-Key: (1024 bit)
                Modulus:
                    00:ce:b0:10:a9:9d:d7:f9:29:9a:c3:e3:ec:45:66:
                    d8:91:6e:f6:d0:c7:70:bf:a5:55:af:df:7a:c2:85:
                    27:e2:70:30:70:2d:1d:b5:43:5d:2a:e8:be:ae:84:
                    a1:7f:a4:a0:3c:d9:2c:b2:65:28:b2:d2:e3:f1:13:
                    7c:5e:0c:51:e4:6b:14:ea:63:ef:5c:86:9f:fa:46:
                    b0:1b:c2:bd:25:65:62:e5:5d:16:f7:7b:3c:17:a5:
                    47:27:13:4e:39:fb:bc:28:de:8f:a6:ae:09:35:6b:
                    a4:1e:10:d1:be:df:0a:5d:da:a8:58:58:06:46:47:
                    27:4a:31:68:e6:4f:ad:26:19
                Exponent: 65537 (0x10001)
        X509v3 extensions:
            X509v3 Basic Constraints: 
                CA:FALSE
            Netscape Comment: 
                OpenSSL Generated Certificate
            X509v3 Subject Key Identifier: 
                35:8F:ED:03:FE:00:19:EB:71:5A:3B:83:9C:99:64:33:D8:90:F0:ED
            X509v3 Authority Key Identifier: 
                keyid:AB:4A:A2:C1:0F:9F:67:ED:49:5A:46:99:50:BF:0E:FE:5B:3F:F5:87

    Signature Algorithm: sha1WithRSAEncryption
        a7:29:52:27:e8:f1:33:0c:9d:54:80:ae:a8:ba:8d:f6:7b:6a:
        bf:3b:bf:b9:fb:8d:06:c9:81:77:72:c1:81:1c:72:ea:73:b2:
        6b:35:0f:18:9e:07:0b:99:3f:e2:07:b7:12:91:d8:68:ac:f3:
        1d:07:07:62:73:0b:d4:cf:2a:6e:58:57:15:fd:f9:7f:35:89:
        b7:b4:b7:57:7d:53:84:41:99:71:1f:9a:c8:67:4b:b3:5f:52:
        03:cf:f6:2e:a4:f7:c6:5b:39:64:74:48:d8:e9:6f:49:5d:80:
        7b:dc:bf:16:d6:c8:bc:da:6b:5c:b3:96:9e:73:41:30:f1:04:
        96:f2
-----BEGIN CERTIFICATE-----
MIIDOTCCAqKgAwIBAgIJAOYT+Nf+9+WSMA0GCSqGSIb3DQEBBQUAMIGLMQswCQYD
VQQGEwJVUzERMA8GA1UECAwIVmlyZ2luaWExIDAeBgNVBAoMF09sZCBET21pbmlv
biBVbml2ZXJzaXR5MQ8wDQYDVQQLDAZDUyA0NzIxFTATBgNVBAMMDFdpbGxpYW0g
Um9zczEfMB0GCSqGSIb3DQEJARYQd3Jvc3NAY3Mub2R1LmVkdTAeFw0xMDExMzAx
MzA4MDlaFw0xMTExMzAxMzA4MDlaMIGzMQswCQYDVQQGEwJVUzERMA8GA1UECAwI
VmlyZ2luaWExEDAOBgNVBAcMB05vcmZvbGsxIDAeBgNVBAoMF09sZCBEb21pbmlv
biBVbml2ZXJzaXR5MSUwIwYDVQQLDBxDUyA0NzIgLSBBcHBsaWNhdGlvbiBHYXRl
d2F5MRUwEwYDVQQDDAxXaWxsaWFtIFJvc3MxHzAdBgkqhkiG9w0BCQEWEHdyb3Nz
QGNzLm9kdS5lZHUwgZ8wDQYJKoZIhvcNAQEBBQADgY0AMIGJAoGBAM6wEKmd1/kp
msPj7EVm2JFu9tDHcL+lVa/fesKFJ+JwMHAtHbVDXSrovq6EoX+koDzZLLJlKLLS
4/ETfF4MUeRrFOpj71yGn/pGsBvCvSVlYuVdFvd7PBelRycTTjn7vCjej6auCTVr
pB4Q0b7fCl3aqFhYBkZHJ0oxaOZPrSYZAgMBAAGjezB5MAkGA1UdEwQCMAAwLAYJ
YIZIAYb4QgENBB8WHU9wZW5TU0wgR2VuZXJhdGVkIENlcnRpZmljYXRlMB0GA1Ud
DgQWBBQ1j+0D/gAZ63FaO4OcmWQz2JDw7TAfBgNVHSMEGDAWgBSrSqLBD59n7Ula
RplQvw7+Wz/1hzANBgkqhkiG9w0BAQUFAAOBgQCnKVIn6PEzDJ1UgK6ouo32e2q/
O7+5+40GyYF3csGBHHLqc7JrNQ8YngcLmT/iB7cSkdhorPMdBwdicwvUzypuWFcV
/fl/NYm3tLdXfVOEQZlxH5rIZ0uzX1IDz/YupPfGWzlkdEjY6W9JXYB73L8W1si8
2mtcs5aec0Ew8QSW8g==
-----END CERTIFICATE-----
