Certificate:
    Data:
        Version: 3 (0x2)
        Serial Number:
            e6:13:f8:d7:fe:f7:e5:90
        Signature Algorithm: sha1WithRSAEncryption
        Issuer: C=US, ST=Virginia, O=Old DOminion University, OU=CS 472, CN=William Ross/emailAddress=wross@cs.odu.edu
        Validity
            Not Before: Nov 27 21:34:14 2010 GMT
            Not After : Nov 27 21:34:14 2011 GMT
        Subject: C=US, ST=Virginia, L=Norfolk, O=Old Dominion University, OU=CS472 - Application Gateway, CN=William Ross/emailAddress=wross@cs.odu.edu
        Subject Public Key Info:
            Public Key Algorithm: rsaEncryption
                Public-Key: (1024 bit)
                Modulus:
                    00:a1:cc:57:2a:9c:4d:8f:8d:15:e9:12:0e:da:61:
                    44:51:ce:4a:50:f8:78:96:a9:a1:bb:d4:5b:44:41:
                    69:02:b0:95:b4:fc:c3:e7:51:9f:ac:19:68:08:27:
                    c6:34:e6:5b:d8:cf:68:6f:29:47:16:79:1e:67:c3:
                    e8:d1:2a:a9:3c:be:81:2f:c1:34:25:d7:49:92:9d:
                    12:53:ec:ae:c0:c8:ea:ab:51:33:2e:9b:73:a8:59:
                    63:ff:30:8a:e5:35:cc:60:3d:71:44:f4:f6:76:5f:
                    bf:65:26:4d:cb:03:f3:96:41:b6:1b:dc:d4:95:30:
                    38:fc:47:72:68:9e:af:74:e5
                Exponent: 65537 (0x10001)
        X509v3 extensions:
            X509v3 Basic Constraints: 
                CA:FALSE
            Netscape Comment: 
                OpenSSL Generated Certificate
            X509v3 Subject Key Identifier: 
                04:1E:BC:19:76:7C:7F:77:AB:2C:BB:C5:7C:80:F9:7C:71:76:12:6F
            X509v3 Authority Key Identifier: 
                keyid:AB:4A:A2:C1:0F:9F:67:ED:49:5A:46:99:50:BF:0E:FE:5B:3F:F5:87

    Signature Algorithm: sha1WithRSAEncryption
        11:22:9f:19:26:80:41:d3:04:7d:65:c1:17:01:96:40:3c:65:
        61:f8:1b:57:6a:f3:be:2d:27:a4:1d:b7:35:46:d4:45:69:16:
        da:97:b0:44:04:76:6d:ee:82:af:17:4a:6f:ff:70:1c:3f:1d:
        78:ea:8b:ee:37:53:a8:9d:a1:7a:a5:be:fc:34:a7:ba:8c:b0:
        65:63:11:b5:f4:52:11:88:52:2d:ea:a2:05:e4:90:82:55:34:
        b9:fe:52:fc:28:4f:03:2a:3c:e9:2e:a9:b7:a0:12:0e:a7:e6:
        83:bd:59:99:ab:b4:26:53:41:2a:30:08:9c:c7:29:c6:12:14:
        79:94
-----BEGIN CERTIFICATE-----
MIIDODCCAqGgAwIBAgIJAOYT+Nf+9+WQMA0GCSqGSIb3DQEBBQUAMIGLMQswCQYD
VQQGEwJVUzERMA8GA1UECAwIVmlyZ2luaWExIDAeBgNVBAoMF09sZCBET21pbmlv
biBVbml2ZXJzaXR5MQ8wDQYDVQQLDAZDUyA0NzIxFTATBgNVBAMMDFdpbGxpYW0g
Um9zczEfMB0GCSqGSIb3DQEJARYQd3Jvc3NAY3Mub2R1LmVkdTAeFw0xMDExMjcy
MTM0MTRaFw0xMTExMjcyMTM0MTRaMIGyMQswCQYDVQQGEwJVUzERMA8GA1UECAwI
VmlyZ2luaWExEDAOBgNVBAcMB05vcmZvbGsxIDAeBgNVBAoMF09sZCBEb21pbmlv
biBVbml2ZXJzaXR5MSQwIgYDVQQLDBtDUzQ3MiAtIEFwcGxpY2F0aW9uIEdhdGV3
YXkxFTATBgNVBAMMDFdpbGxpYW0gUm9zczEfMB0GCSqGSIb3DQEJARYQd3Jvc3NA
Y3Mub2R1LmVkdTCBnzANBgkqhkiG9w0BAQEFAAOBjQAwgYkCgYEAocxXKpxNj40V
6RIO2mFEUc5KUPh4lqmhu9RbREFpArCVtPzD51GfrBloCCfGNOZb2M9obylHFnke
Z8Po0SqpPL6BL8E0JddJkp0SU+yuwMjqq1EzLptzqFlj/zCK5TXMYD1xRPT2dl+/
ZSZNywPzlkG2G9zUlTA4/EdyaJ6vdOUCAwEAAaN7MHkwCQYDVR0TBAIwADAsBglg
hkgBhvhCAQ0EHxYdT3BlblNTTCBHZW5lcmF0ZWQgQ2VydGlmaWNhdGUwHQYDVR0O
BBYEFAQevBl2fH93qyy7xXyA+XxxdhJvMB8GA1UdIwQYMBaAFKtKosEPn2ftSVpG
mVC/Dv5bP/WHMA0GCSqGSIb3DQEBBQUAA4GBABEinxkmgEHTBH1lwRcBlkA8ZWH4
G1dq874tJ6QdtzVG1EVpFtqXsEQEdm3ugq8XSm//cBw/HXjqi+43U6idoXqlvvw0
p7qMsGVjEbX0UhGIUi3qogXkkIJVNLn+UvwoTwMqPOkuqbegEg6n5oO9WZmrtCZT
QSowCJzHKcYSFHmU
-----END CERTIFICATE-----
