Certificate:
    Data:
        Version: 3 (0x2)
        Serial Number:
            e6:13:f8:d7:fe:f7:e5:8f
        Signature Algorithm: sha1WithRSAEncryption
        Issuer: C=US, ST=Virginia, O=Old DOminion University, OU=CS 472, CN=William Ross/emailAddress=wross@cs.odu.edu
        Validity
            Not Before: Nov 27 21:31:24 2010 GMT
            Not After : Nov 27 21:31:24 2011 GMT
        Subject: C=US, ST=Virginia, L=Norfolk, O=Old Dominion University, OU=CS 472 - SecureStore, CN=William Ross/emailAddress=wross@cs.odu.edu
        Subject Public Key Info:
            Public Key Algorithm: rsaEncryption
                Public-Key: (1024 bit)
                Modulus:
                    00:d5:49:e1:d7:3e:a2:79:bd:57:ee:5d:18:9f:ef:
                    72:9a:61:4c:be:56:04:fa:ca:2b:d8:b7:e2:48:e4:
                    8f:4f:b6:b8:04:83:ca:bf:4a:81:b7:93:31:e3:36:
                    90:3b:48:e3:85:da:e5:70:53:87:c5:df:35:8c:c6:
                    42:64:0d:88:84:62:34:18:03:3f:75:1f:f2:ea:23:
                    0d:d8:3b:c5:b4:51:2c:5b:0d:24:69:e8:77:1e:7c:
                    7f:65:22:8e:dc:a7:eb:82:6d:bc:ca:57:fb:4f:55:
                    64:28:3b:68:6f:cf:3b:e3:c9:36:95:3d:b9:9b:29:
                    6c:b3:5c:91:c0:32:0f:fe:ad
                Exponent: 65537 (0x10001)
        X509v3 extensions:
            X509v3 Basic Constraints: 
                CA:FALSE
            Netscape Comment: 
                OpenSSL Generated Certificate
            X509v3 Subject Key Identifier: 
                D1:1B:5F:0D:E6:60:6C:F9:46:FB:89:90:B0:00:D2:1D:3D:8F:46:FF
            X509v3 Authority Key Identifier: 
                keyid:AB:4A:A2:C1:0F:9F:67:ED:49:5A:46:99:50:BF:0E:FE:5B:3F:F5:87

    Signature Algorithm: sha1WithRSAEncryption
        6e:78:b3:c0:b3:82:be:e7:bd:bc:1a:45:12:06:d8:f0:46:17:
        5f:f0:24:af:f2:e0:50:66:73:65:5c:f2:27:6e:8c:ae:d8:98:
        2e:8d:1e:3c:e9:c3:43:5e:1d:b8:9c:03:e3:10:6c:2e:64:9a:
        7a:1d:52:8b:d8:ec:8b:11:6c:34:2b:55:85:42:eb:aa:69:d9:
        7f:5e:bb:37:75:3c:c1:20:9c:50:0b:48:ed:5f:f8:7a:45:89:
        76:a2:86:22:31:21:7f:85:32:da:79:56:92:13:52:d1:76:68:
        ad:93:ab:5a:b6:69:c0:cb:be:1c:16:fc:0b:0c:ec:07:77:ed:
        1f:73
-----BEGIN CERTIFICATE-----
MIIDMTCCApqgAwIBAgIJAOYT+Nf+9+WPMA0GCSqGSIb3DQEBBQUAMIGLMQswCQYD
VQQGEwJVUzERMA8GA1UECAwIVmlyZ2luaWExIDAeBgNVBAoMF09sZCBET21pbmlv
biBVbml2ZXJzaXR5MQ8wDQYDVQQLDAZDUyA0NzIxFTATBgNVBAMMDFdpbGxpYW0g
Um9zczEfMB0GCSqGSIb3DQEJARYQd3Jvc3NAY3Mub2R1LmVkdTAeFw0xMDExMjcy
MTMxMjRaFw0xMTExMjcyMTMxMjRaMIGrMQswCQYDVQQGEwJVUzERMA8GA1UECAwI
VmlyZ2luaWExEDAOBgNVBAcMB05vcmZvbGsxIDAeBgNVBAoMF09sZCBEb21pbmlv
biBVbml2ZXJzaXR5MR0wGwYDVQQLDBRDUyA0NzIgLSBTZWN1cmVTdG9yZTEVMBMG
A1UEAwwMV2lsbGlhbSBSb3NzMR8wHQYJKoZIhvcNAQkBFhB3cm9zc0Bjcy5vZHUu
ZWR1MIGfMA0GCSqGSIb3DQEBAQUAA4GNADCBiQKBgQDVSeHXPqJ5vVfuXRif73Ka
YUy+VgT6yivYt+JI5I9PtrgEg8q/SoG3kzHjNpA7SOOF2uVwU4fF3zWMxkJkDYiE
YjQYAz91H/LqIw3YO8W0USxbDSRp6HcefH9lIo7cp+uCbbzKV/tPVWQoO2hvzzvj
yTaVPbmbKWyzXJHAMg/+rQIDAQABo3sweTAJBgNVHRMEAjAAMCwGCWCGSAGG+EIB
DQQfFh1PcGVuU1NMIEdlbmVyYXRlZCBDZXJ0aWZpY2F0ZTAdBgNVHQ4EFgQU0Rtf
DeZgbPlG+4mQsADSHT2PRv8wHwYDVR0jBBgwFoAUq0qiwQ+fZ+1JWkaZUL8O/ls/
9YcwDQYJKoZIhvcNAQEFBQADgYEAbnizwLOCvue9vBpFEgbY8EYXX/Akr/LgUGZz
ZVzyJ26MrtiYLo0ePOnDQ14duJwD4xBsLmSaeh1Si9jsixFsNCtVhULrqmnZf167
N3U8wSCcUAtI7V/4ekWJdqKGIjEhf4Uy2nlWkhNS0XZorZOrWrZpwMu+HBb8Cwzs
B3ftH3M=
-----END CERTIFICATE-----
